; Function Attrs: nounwind uwtable
define hidden range(i32 -1, 1) i32 @_PyMonitoring_GetLocalEvents(ptr noundef readonly captures(none) %0, i32 noundef %1, ptr noundef writeonly captures(none) %2) local_unnamed_addr #2 {
  %4 = icmp slt i32 %1, 6
  br i1 %4, label %5, label %17

5:                                                ; preds = %3
  %6 = tail call align 8 ptr @llvm.threadlocal.address.p0(ptr align 8 @_Py_tss_tstate)
  %7 = load ptr, ptr %6, align 8, !tbaa !76
  %8 = getelementptr inbounds nuw i8, ptr %7, i64 16
  %9 = load ptr, ptr %8, align 8, !tbaa !47
  %10 = getelementptr inbounds nuw i8, ptr %9, i64 224264
  %11 = sext i32 %1 to i64
  %12 = getelementptr [8 x ptr], ptr %10, i64 0, i64 %11
  %13 = load ptr, ptr %12, align 8, !tbaa !46
  %14 = icmp eq ptr %13, null
  br i1 %14, label %check_tool.exit, label %17

check_tool.exit:                                  ; preds = %5
  %15 = load ptr, ptr @PyExc_ValueError, align 8, !tbaa !46
  %16 = tail call ptr (ptr, ptr, ...) @PyErr_Format(ptr noundef %15, ptr noundef nonnull @.str.11, i32 noundef %1) #11
  br label %32

17:                                               ; preds = %5, %3
  %18 = getelementptr inbounds nuw i8, ptr %0, i64 176
  %19 = load ptr, ptr %18, align 8, !tbaa !26
  %20 = icmp eq ptr %19, null
  br i1 %20, label %21, label %22

21:                                               ; preds = %17
  store i32 0, ptr %2, align 4, !tbaa !180
  br label %32

22:                                               ; preds = %17
  %23 = shl nuw i32 1, %1
  br label %24

24:                                               ; preds = %24, %22
  %indvars.iv.i = phi i64 [ 0, %22 ], [ %indvars.iv.next.i, %24 ]
  %.078.i = phi i32 [ 0, %22 ], [ %.1.i, %24 ]
  %25 = getelementptr [11 x i8], ptr %19, i64 0, i64 %indvars.iv.i
  %26 = load i8, ptr %25, align 1, !tbaa !33
  %27 = zext i8 %26 to i32
  %28 = and i32 %23, %27
  %.not.i = icmp eq i32 %28, 0
  %29 = trunc nuw nsw i64 %indvars.iv.i to i32
  %30 = shl nuw nsw i32 1, %29
  %31 = select i1 %.not.i, i32 0, i32 %30
  %.1.i = or i32 %31, %.078.i
  %indvars.iv.next.i = add nuw nsw i64 %indvars.iv.i, 1
  %exitcond.not.i = icmp eq i64 %indvars.iv.next.i, 11
  br i1 %exitcond.not.i, label %get_local_events.exit, label %24, !llvm.loop !87

get_local_events.exit:                            ; preds = %24
  store i32 %.1.i, ptr %2, align 4, !tbaa !180
  br label %32

32:                                               ; preds = %check_tool.exit, %get_local_events.exit, %21
  %.0 = phi i32 [ 0, %21 ], [ 0, %get_local_events.exit ], [ -1, %check_tool.exit ]
  ret i32 %.0
}